target datalayout = "e-m:e-p270:32:32-p271:32:32-p272:64:64-i64:64-i128:128-f80:128-n8:16:32:64-S128"
target triple = "x86_64-pc-linux-gnu"

%union.pthread_mutex_t = type { %struct.__pthread_mutex_s }
%struct.__pthread_mutex_s = type { i32, i32, i32, i32, i32, i16, i16, %struct.__pthread_internal_list }
%struct.__pthread_internal_list = type { ptr, ptr }
%union.pthread_cond_t = type { %struct.__pthread_cond_s }
%struct.__pthread_cond_s = type { %union.__atomic_wide_counter, %union.__atomic_wide_counter, [2 x i32], [2 x i32], i32, i32, [2 x i32] }
%union.__atomic_wide_counter = type { i64 }
%struct.log_options_t = type { i32, i32, i32, i8, i8, i8, i32 }
%struct.slurmd_config = type { ptr, ptr, i32, [4096 x i8], ptr, ptr, ptr, ptr, i16, i16, i16, i16, ptr, i16, i64, i16, i16, i16, i16, i16, i16, i16, i16, i16, i16, i16, i64, i64, i32, i32, i16, ptr, ptr, ptr, i32, ptr, ptr, ptr, ptr, ptr, ptr, ptr, ptr, ptr, ptr, i32, ptr, ptr, i16, i32, i32, %struct.log_options_t, i32, i16, i64, i8, i8, i8, i8, i8, %union.pthread_mutex_t, i16, ptr, %union.pthread_cond_t, ptr, %union.pthread_cond_t, i8, i8, ptr, ptr }

@conf = dso_local global ptr null, align 8
@.str.288 = private unnamed_addr constant [24 x i8] c"killing old slurmd[%lu]\00", align 1
@.str.289 = private unnamed_addr constant [40 x i8] c"error getting readw lock on file %s: %m\00", align 1

; Function Attrs: nounwind uwtable
define internal void @_wait_on_old_slurmd(i1 noundef zeroext %0) #0 {
  %2 = alloca i8, align 1
  %3 = alloca i32, align 4
  %4 = alloca i32, align 4
  %5 = zext i1 %0 to i8
  store i8 %5, ptr %2, align 1
  call void @llvm.lifetime.start.p0(i64 4, ptr %3) #11
  call void @llvm.lifetime.start.p0(i64 4, ptr %4) #11
  %6 = load ptr, ptr @conf, align 8
  %7 = getelementptr inbounds nuw %struct.slurmd_config, ptr %6, i32 0, i32 43
  %8 = load ptr, ptr %7, align 8
  %9 = call i32 @read_pidfile(ptr noundef %8, ptr noundef %3)
  store i32 %9, ptr %4, align 4
  %10 = load i32, ptr %4, align 4
  %11 = icmp ne i32 %10, 0
  br i1 %11, label %12, label %41

12:                                               ; preds = %1
  %13 = load i8, ptr %2, align 1, !range !8, !noundef !9
  %14 = trunc i8 %13 to i1
  br i1 %14, label %15, label %30

15:                                               ; preds = %12
  br label %16

16:                                               ; preds = %15
  br label %17

17:                                               ; preds = %16
  %18 = call i32 @get_log_level()
  %19 = icmp sge i32 %18, 3
  br i1 %19, label %20, label %23

20:                                               ; preds = %17
  %21 = load i32, ptr %4, align 4
  %22 = sext i32 %21 to i64
  call void (i32, ptr, ...) @log_var(i32 noundef 3, ptr noundef @.str.288, i64 noundef %22)
  br label %23

23:                                               ; preds = %20, %17
  br label %24

24:                                               ; preds = %23
  br label %25

25:                                               ; preds = %24
  br label %26

26:                                               ; preds = %25
  br label %27

27:                                               ; preds = %26
  %28 = load i32, ptr %4, align 4
  %29 = call i32 @kill(i32 noundef %28, i32 noundef 15) #11
  br label %30

30:                                               ; preds = %27, %12
  %31 = load i32, ptr %3, align 4
  %32 = call i32 @fd_get_readw_lock(i32 noundef %31)
  %33 = icmp slt i32 %32, 0
  br i1 %33, label %34, label %38

34:                                               ; preds = %30
  %35 = load ptr, ptr @conf, align 8
  %36 = getelementptr inbounds nuw %struct.slurmd_config, ptr %35, i32 0, i32 43
  %37 = load ptr, ptr %36, align 8
  call void (ptr, ...) @fatal(ptr noundef @.str.289, ptr noundef %37) #12
  unreachable

38:                                               ; preds = %30
  %39 = load i32, ptr %3, align 4
  %40 = call i32 @close(i32 noundef %39)
  br label %41

41:                                               ; preds = %38, %1
  call void @llvm.lifetime.end.p0(i64 4, ptr %4) #11
  call void @llvm.lifetime.end.p0(i64 4, ptr %3) #11
  ret void
}