; Function Attrs: nounwind uwtable
define internal fastcc void @_wait_on_old_slurmd(i1 noundef zeroext %0) unnamed_addr #0 {
  %2 = alloca i32, align 4
  call void @llvm.lifetime.start.p0(i64 4, ptr nonnull %2) #18
  %3 = load ptr, ptr @conf, align 8
  %4 = getelementptr inbounds nuw i8, ptr %3, i64 4336
  %5 = load ptr, ptr %4, align 8
  %6 = call i32 @read_pidfile(ptr noundef %5, ptr noundef nonnull %2) #18
  %.not = icmp eq i32 %6, 0
  br i1 %.not, label %26, label %7

7:                                                ; preds = %1
  br i1 %0, label %8, label %15

8:                                                ; preds = %7
  %9 = call i32 @get_log_level() #18
  %10 = icmp sgt i32 %9, 2
  br i1 %10, label %11, label %13

11:                                               ; preds = %8
  %12 = sext i32 %6 to i64
  call void (i32, ptr, ...) @log_var(i32 noundef 3, ptr noundef nonnull @.str.288, i64 noundef %12) #18
  br label %13

13:                                               ; preds = %11, %8
  %14 = call i32 @kill(i32 noundef %6, i32 noundef 15) #18
  br label %15

15:                                               ; preds = %13, %7
  %16 = load i32, ptr %2, align 4
  %17 = call i32 @fd_get_readw_lock(i32 noundef %16) #18
  %18 = icmp slt i32 %17, 0
  br i1 %18, label %19, label %23

19:                                               ; preds = %15
  %20 = load ptr, ptr @conf, align 8
  %21 = getelementptr inbounds nuw i8, ptr %20, i64 4336
  %22 = load ptr, ptr %21, align 8
  call void (ptr, ...) @fatal(ptr noundef nonnull @.str.289, ptr noundef %22) #19
  unreachable

23:                                               ; preds = %15
  %24 = load i32, ptr %2, align 4
  %25 = call i32 @close(i32 noundef %24) #18
  br label %26

26:                                               ; preds = %23, %1
  call void @llvm.lifetime.end.p0(i64 4, ptr nonnull %2) #18
  ret void
}